V3.10
p0
.VLALR
p0
.VADD ASTERISK_PERIOD BOOL COLON COMMA COMMAEND DIVIDE EMINUS EPLUS EQ EQUAL FLOAT GE GT IDENTIFIER LE LEFTBRACE LEFTBRACKET LEFTPAREN LT MINUS MULTIPLY NE NUMBER PERIOD QMARK RIGHTBRACE RIGHTBRACKET RIGHTPAREN STRINGtop : objectlistobjectlist : objectitemobjectlist : objectlist objectitemobjectlist : objectlist COMMA objectitemobject : LEFTBRACE objectlist RIGHTBRACEobject : LEFTBRACE objectlist COMMA RIGHTBRACEobject : LEFTBRACE RIGHTBRACE\u000a        objectkey : IDENTIFIER\u000a                  | STRING\u000a        \u000a        objectkey : IDENTIFIER ADD number\u000a                  | number ADD IDENTIFIER\u000a                  | IDENTIFIER MINUS number\u000a                  | number MINUS IDENTIFIER\u000a                  | IDENTIFIER MULTIPLY number\u000a                  | number MULTIPLY IDENTIFIER\u000a                  | IDENTIFIER DIVIDE number\u000a                  | number DIVIDE IDENTIFIER\u000a        objectbrackets : IDENTIFIER LEFTBRACKET objectkey RIGHTBRACKET\u000a        objectbrackets : IDENTIFIER LEFTBRACKET objectkey RIGHTBRACKET PERIOD IDENTIFIER\u000a                       | IDENTIFIER LEFTBRACKET NUMBER RIGHTBRACKET PERIOD IDENTIFIER\u000a        \u000a        objectitem : objectkey EQUAL number\u000a                   | objectkey EQUAL BOOL\u000a                   | objectkey EQUAL STRING\u000a                   | objectkey EQUAL IDENTIFIER\u000a                   | objectkey EQUAL object\u000a                   | objectkey EQUAL objectkey\u000a                   | objectkey EQUAL list\u000a                   | objectkey EQUAL objectbrackets\u000a                   | objectkey EQUAL function\u000a                   | objectkey EQUAL booleanexp\u000a                   | objectkey COLON number\u000a                   | objectkey COLON BOOL\u000a                   | objectkey COLON STRING\u000a                   | objectkey COLON IDENTIFIER\u000a                   | objectkey COLON object\u000a                   | objectkey COLON objectkey\u000a                   | objectkey COLON list\u000a                   | objectkey COLON objectbrackets\u000a                   | objectkey COLON booleanexp\u000a        objectitem : block\u000a        objectitem : objectkey EQUAL objectkey QMARK objectkey COLON objectkey\u000a                   | objectkey EQUAL objectkey QMARK objectkey COLON number\u000a                   | objectkey EQUAL objectkey QMARK objectkey COLON BOOL\u000a                   | objectkey EQUAL objectkey QMARK objectkey COLON function\u000a                   | objectkey EQUAL objectkey QMARK number COLON objectkey\u000a                   | objectkey EQUAL objectkey QMARK BOOL COLON objectkey\u000a                   | objectkey EQUAL objectkey QMARK function COLON objectkey\u000a                   | objectkey EQUAL objectkey QMARK number COLON number\u000a                   | objectkey EQUAL objectkey QMARK number COLON BOOL\u000a                   | objectkey EQUAL objectkey QMARK number COLON function\u000a                   | objectkey EQUAL objectkey QMARK BOOL COLON number\u000a                   | objectkey EQUAL objectkey QMARK BOOL COLON function\u000a                   | objectkey EQUAL objectkey QMARK BOOL COLON BOOL\u000a                   | objectkey EQUAL booleanexp QMARK objectkey COLON objectkey\u000a                   | objectkey EQUAL booleanexp QMARK objectkey COLON number\u000a                   | objectkey EQUAL booleanexp QMARK objectkey COLON BOOL\u000a                   | objectkey EQUAL booleanexp QMARK objectkey COLON function\u000a                   | objectkey EQUAL booleanexp QMARK number COLON objectkey\u000a                   | objectkey EQUAL booleanexp QMARK BOOL COLON objectkey\u000a                   | objectkey EQUAL booleanexp QMARK function COLON objectkey\u000a                   | objectkey EQUAL booleanexp QMARK number COLON number\u000a                   | objectkey EQUAL booleanexp QMARK number COLON BOOL\u000a                   | objectkey EQUAL booleanexp QMARK number COLON function\u000a                   | objectkey EQUAL booleanexp QMARK BOOL COLON number\u000a                   | objectkey EQUAL booleanexp QMARK BOOL COLON function\u000a                   | objectkey EQUAL booleanexp QMARK BOOL COLON BOOL\u000a        \u000a        operator : EQ\u000a                 | NE\u000a                 | LT\u000a                 | GT\u000a                 | LE\u000a                 | GE\u000a        \u000a        booleanexp : objectkey operator objectkey\u000a                   | objectkey operator number\u000a                   | number operator objectkey\u000a        block : objectkey objectblock : objectkey block\u000a        list : LEFTBRACKET listitems RIGHTBRACKET\u000a             | LEFTBRACKET listitems COMMA RIGHTBRACKET\u000a        \u000a        list : LEFTBRACKET RIGHTBRACKET\u000a             | LEFTPAREN RIGHTPAREN\u000a        \u000a        list : LEFTPAREN LEFTBRACKET listitems RIGHTBRACKET PERIOD PERIOD PERIOD RIGHTPAREN\u000a        \u000a        list_of_lists : list COMMA list\u000a        \u000a        list_of_lists : list_of_lists COMMA list\u000a        \u000a        function : IDENTIFIER LEFTPAREN listitems RIGHTPAREN\u000a                 | IDENTIFIER LEFTPAREN list_of_lists RIGHTPAREN\u000a        \u000a        function : IDENTIFIER LEFTPAREN listitems COMMA RIGHTPAREN\u000a                 | IDENTIFIER LEFTPAREN list_of_lists COMMA RIGHTPAREN\u000a        \u000a        function : IDENTIFIER LEFTPAREN list PERIOD PERIOD PERIOD RIGHTPAREN\u000a        \u000a        function : IDENTIFIER LEFTPAREN LEFTBRACKET list_of_lists RIGHTBRACKET PERIOD PERIOD PERIOD RIGHTPAREN\u000a        \u000a        listitems : listitem\u000a                  | function\u000a                  | object COMMA\u000a                  | objectkey COMMA\u000a        \u000a        listitems : listitems COMMA listitem\u000a                  | listitems COMMA function\u000a                  | listitems COMMA objectkey\u000a        \u000a        listitems : object COMMA object\u000a                  | object COMMA objectkey\u000a                  | objectkey COMMA objectkey\u000a                  | objectkey COMMA object\u000a                  | objectkey COMMA list\u000a        \u000a        listitems : objectkey COMMA IDENTIFIER ASTERISK_PERIOD IDENTIFIER\u000a        \u000a        listitems : objectkey list\u000a        \u000a        listitem : number\u000a                 | object\u000a                 | objectkey\u000a                 | objectbrackets\u000a        \u000a        listitem : IDENTIFIER ASTERISK_PERIOD IDENTIFIER\u000a        number : intnumber : floatnumber : int expnumber : float exp\u000a        number : number ADD number\u000a        \u000a        number : number MINUS number\u000a        \u000a        number : number MULTIPLY number\u000a        \u000a        number : number DIVIDE number\u000a        int : MINUS intint : NUMBERfloat : MINUS floatfloat : FLOATexp : EPLUS NUMBERexp : EMINUS NUMBER
p0
.(dp0
L0L
(dp1
VIDENTIFIER
p2
L7L
sVSTRING
p3
L6L
sVMINUS
p4
L9L
sVNUMBER
p5
L12L
sVFLOAT
p6
L13L
ssL1L
(dp7
V$end
p8
L0L
ssL2L
(dp9
V$end
p10
L-1L
sVCOMMA
p11
L15L
sg2
L7L
sg3
L6L
sg4
L9L
sg5
L12L
sg6
L13L
ssL3L
(dp12
g11
L-2L
sg2
L-2L
sg3
L-2L
sg4
L-2L
sg5
L-2L
sg6
L-2L
sg10
L-2L
sVRIGHTBRACE
p13
L-2L
ssL4L
(dp14
VEQUAL
p15
L17L
sVCOLON
p16
L19L
sVLEFTBRACE
p17
L21L
sg2
L7L
sg3
L6L
sg4
L9L
sg5
L12L
sg6
L13L
ssL5L
(dp18
VADD
p19
L22L
sVMINUS
p20
L23L
sVMULTIPLY
p21
L24L
sVDIVIDE
p22
L25L
ssL6L
(dp23
g15
L-9L
sg16
L-9L
sg17
L-9L
sg2
L-9L
sg3
L-9L
sg4
L-9L
sg5
L-9L
sg6
L-9L
sVCOMMA
p24
L-9L
sVLEFTBRACKET
p25
L-9L
sVLEFTPAREN
p26
L-9L
sVRIGHTBRACKET
p27
L-9L
sVQMARK
p28
L-9L
sg10
L-9L
sg13
L-9L
sVRIGHTPAREN
p29
L-9L
ssL7L
(dp30
g15
L-8L
sg16
L-8L
sg17
L-8L
sg2
L-8L
sg3
L-8L
sg4
L27L
sg5
L-8L
sg6
L-8L
sg28
L-8L
sg11
L-8L
sg10
L-8L
sg13
L-8L
sVRIGHTBRACKET
p31
L-8L
sg29
L-8L
sVADD
p32
L26L
sVMULTIPLY
p33
L28L
sVDIVIDE
p34
L29L
ssL8L
(dp35
g11
L-40L
sg2
L-40L
sg3
L-40L
sg4
L-40L
sg5
L-40L
sg6
L-40L
sg10
L-40L
sg13
L-40L
ssL9L
(dp36
g4
L9L
sg5
L12L
sg6
L13L
ssL10L
(dp37
g19
L-110L
sg20
L-110L
sg21
L-110L
sg22
L-110L
sVEQ
p38
L-110L
sVNE
p39
L-110L
sVLT
p40
L-110L
sVGT
p41
L-110L
sVLE
p42
L-110L
sVGE
p43
L-110L
sg11
L-110L
sg2
L-110L
sg3
L-110L
sg5
L-110L
sg6
L-110L
sg10
L-110L
sg13
L-110L
sg27
L-110L
sVCOLON
p44
L-110L
sg28
L-110L
sg29
L-110L
sg15
L-110L
sg17
L-110L
sg25
L-110L
sg26
L-110L
sVEPLUS
p45
L33L
sVEMINUS
p46
L34L
ssL11L
(dp47
g19
L-111L
sg20
L-111L
sg21
L-111L
sg22
L-111L
sg38
L-111L
sg39
L-111L
sg40
L-111L
sg41
L-111L
sg42
L-111L
sg43
L-111L
sg11
L-111L
sg2
L-111L
sg3
L-111L
sg5
L-111L
sg6
L-111L
sg10
L-111L
sg13
L-111L
sg27
L-111L
sg44
L-111L
sg28
L-111L
sg29
L-111L
sg15
L-111L
sg17
L-111L
sg25
L-111L
sg26
L-111L
sg45
L33L
sg46
L34L
ssL12L
(dp48
g45
L-119L
sg46
L-119L
sg19
L-119L
sg20
L-119L
sg21
L-119L
sg22
L-119L
sg38
L-119L
sg39
L-119L
sg40
L-119L
sg41
L-119L
sg42
L-119L
sg43
L-119L
sg11
L-119L
sg2
L-119L
sg3
L-119L
sg5
L-119L
sg6
L-119L
sg10
L-119L
sg13
L-119L
sg27
L-119L
sg44
L-119L
sg28
L-119L
sg29
L-119L
sg15
L-119L
sg17
L-119L
sg25
L-119L
sg26
L-119L
ssL13L
(dp49
g45
L-121L
sg46
L-121L
sg19
L-121L
sg20
L-121L
sg21
L-121L
sg22
L-121L
sg38
L-121L
sg39
L-121L
sg40
L-121L
sg41
L-121L
sg42
L-121L
sg43
L-121L
sg11
L-121L
sg2
L-121L
sg3
L-121L
sg5
L-121L
sg6
L-121L
sg10
L-121L
sg13
L-121L
sg27
L-121L
sg44
L-121L
sg28
L-121L
sg29
L-121L
sg15
L-121L
sg17
L-121L
sg25
L-121L
sg26
L-121L
ssL14L
(dp50
g11
L-3L
sg2
L-3L
sg3
L-3L
sg4
L-3L
sg5
L-3L
sg6
L-3L
sg10
L-3L
sg13
L-3L
ssL15L
(dp51
g2
L7L
sg3
L6L
sg4
L9L
sg5
L12L
sg6
L13L
ssL16L
(dp52
g17
L21L
sg2
L7L
sg3
L6L
sg4
L9L
sg5
L12L
sg6
L13L
ssL17L
(dp53
VBOOL
p54
L39L
sVSTRING
p55
L40L
sVIDENTIFIER
p56
L41L
sg17
L21L
sg25
L47L
sg26
L48L
sg4
L9L
sg5
L12L
sg6
L13L
ssL18L
(dp57
g11
L-76L
sg2
L-76L
sg3
L-76L
sg4
L-76L
sg5
L-76L
sg6
L-76L
sg10
L-76L
sg13
L-76L
ssL19L
(dp58
VBOOL
p59
L51L
sVSTRING
p60
L52L
sVIDENTIFIER
p61
L53L
sg17
L21L
sg25
L47L
sg26
L48L
sg4
L9L
sg5
L12L
sg6
L13L
ssL20L
(dp62
g11
L-77L
sg2
L-77L
sg3
L-77L
sg4
L-77L
sg5
L-77L
sg6
L-77L
sg10
L-77L
sg13
L-77L
ssL21L
(dp63
VRIGHTBRACE
p64
L59L
sg2
L7L
sg3
L6L
sg4
L9L
sg5
L12L
sg6
L13L
ssL22L
(dp65
VIDENTIFIER
p66
L61L
sg4
L9L
sg5
L12L
sg6
L13L
ssL23L
(dp67
VIDENTIFIER
p68
L63L
sg4
L9L
sg5
L12L
sg6
L13L
ssL24L
(dp69
VIDENTIFIER
p70
L65L
sg4
L9L
sg5
L12L
sg6
L13L
ssL25L
(dp71
VIDENTIFIER
p72
L67L
sg4
L9L
sg5
L12L
sg6
L13L
ssL26L
(dp73
g4
L9L
sg5
L12L
sg6
L13L
ssL27L
(dp74
g4
L9L
sg5
L12L
sg6
L13L
ssL28L
(dp75
g4
L9L
sg5
L12L
sg6
L13L
ssL29L
(dp76
g4
L9L
sg5
L12L
sg6
L13L
ssL30L
(dp77
g45
L-118L
sg46
L-118L
sg19
L-118L
sg20
L-118L
sg21
L-118L
sg22
L-118L
sg38
L-118L
sg39
L-118L
sg40
L-118L
sg41
L-118L
sg42
L-118L
sg43
L-118L
sg11
L-118L
sg2
L-118L
sg3
L-118L
sg5
L-118L
sg6
L-118L
sg10
L-118L
sg13
L-118L
sg27
L-118L
sg44
L-118L
sg28
L-118L
sg29
L-118L
sg15
L-118L
sg17
L-118L
sg25
L-118L
sg26
L-118L
ssL31L
(dp78
g45
L-120L
sg46
L-120L
sg19
L-120L
sg20
L-120L
sg21
L-120L
sg22
L-120L
sg38
L-120L
sg39
L-120L
sg40
L-120L
sg41
L-120L
sg42
L-120L
sg43
L-120L
sg11
L-120L
sg2
L-120L
sg3
L-120L
sg5
L-120L
sg6
L-120L
sg10
L-120L
sg13
L-120L
sg27
L-120L
sg44
L-120L
sg28
L-120L
sg29
L-120L
sg15
L-120L
sg17
L-120L
sg25
L-120L
sg26
L-120L
ssL32L
(dp79
g19
L-112L
sg20
L-112L
sg21
L-112L
sg22
L-112L
sg38
L-112L
sg39
L-112L
sg40
L-112L
sg41
L-112L
sg42
L-112L
sg43
L-112L
sg11
L-112L
sg2
L-112L
sg3
L-112L
sg5
L-112L
sg6
L-112L
sg10
L-112L
sg13
L-112L
sg27
L-112L
sg44
L-112L
sg28
L-112L
sg29
L-112L
sg15
L-112L
sg17
L-112L
sg25
L-112L
sg26
L-112L
ssL33L
(dp80
VNUMBER
p81
L72L
ssL34L
(dp82
VNUMBER
p83
L73L
ssL35L
(dp84
g19
L-113L
sg20
L-113L
sg21
L-113L
sg22
L-113L
sg38
L-113L
sg39
L-113L
sg40
L-113L
sg41
L-113L
sg42
L-113L
sg43
L-113L
sg11
L-113L
sg2
L-113L
sg3
L-113L
sg5
L-113L
sg6
L-113L
sg10
L-113L
sg13
L-113L
sg27
L-113L
sg44
L-113L
sg28
L-113L
sg29
L-113L
sg15
L-113L
sg17
L-113L
sg25
L-113L
sg26
L-113L
ssL36L
(dp85
g11
L-4L
sg2
L-4L
sg3
L-4L
sg4
L-4L
sg5
L-4L
sg6
L-4L
sg10
L-4L
sg13
L-4L
ssL37L
(dp86
g11
L-26L
sg2
L-26L
sg3
L-26L
sg4
L-26L
sg5
L-26L
sg6
L-26L
sg10
L-26L
sg13
L-26L
sVQMARK
p87
L74L
sg38
L76L
sg39
L77L
sg40
L78L
sg41
L79L
sg42
L80L
sg43
L81L
ssL38L
(dp88
g11
L-21L
sg2
L-21L
sg3
L-21L
sg4
L83L
sg5
L-21L
sg6
L-21L
sg10
L-21L
sg13
L-21L
sVADD
p89
L82L
sVMULTIPLY
p90
L84L
sVDIVIDE
p91
L85L
sg38
L76L
sg39
L77L
sg40
L78L
sg41
L79L
sg42
L80L
sg43
L81L
ssL39L
(dp92
g11
L-22L
sg2
L-22L
sg3
L-22L
sg4
L-22L
sg5
L-22L
sg6
L-22L
sg10
L-22L
sg13
L-22L
ssL40L
(dp93
g11
L-9L
sg2
L-9L
sg3
L-9L
sg4
L-9L
sg5
L-9L
sg6
L-9L
sg10
L-9L
sg13
L-9L
sg87
L-9L
sg38
L-9L
sg39
L-9L
sg40
L-9L
sg41
L-9L
sg42
L-9L
sg43
L-9L
ssL41L
(dp94
g11
L-8L
sg2
L-8L
sg3
L-8L
sg4
L27L
sg5
L-8L
sg6
L-8L
sg10
L-8L
sg13
L-8L
sg87
L-8L
sg38
L-8L
sg39
L-8L
sg40
L-8L
sg41
L-8L
sg42
L-8L
sg43
L-8L
sg32
L26L
sg33
L28L
sg34
L29L
sVLEFTBRACKET
p95
L87L
sVLEFTPAREN
p96
L88L
ssL42L
(dp97
g11
L-25L
sg2
L-25L
sg3
L-25L
sg4
L-25L
sg5
L-25L
sg6
L-25L
sg10
L-25L
sg13
L-25L
ssL43L
(dp98
g11
L-27L
sg2
L-27L
sg3
L-27L
sg4
L-27L
sg5
L-27L
sg6
L-27L
sg10
L-27L
sg13
L-27L
ssL44L
(dp99
g11
L-28L
sg2
L-28L
sg3
L-28L
sg4
L-28L
sg5
L-28L
sg6
L-28L
sg10
L-28L
sg13
L-28L
ssL45L
(dp100
g11
L-29L
sg2
L-29L
sg3
L-29L
sg4
L-29L
sg5
L-29L
sg6
L-29L
sg10
L-29L
sg13
L-29L
ssL46L
(dp101
g11
L-30L
sg2
L-30L
sg3
L-30L
sg4
L-30L
sg5
L-30L
sg6
L-30L
sg10
L-30L
sg13
L-30L
sg28
L89L
ssL47L
(dp102
VRIGHTBRACKET
p103
L91L
sVIDENTIFIER
p104
L96L
sg17
L21L
sg3
L6L
sg4
L9L
sg5
L12L
sg6
L13L
ssL48L
(dp105
VRIGHTPAREN
p106
L99L
sVLEFTBRACKET
p107
L100L
ssL49L
(dp108
g11
L-36L
sg2
L-36L
sg3
L-36L
sg4
L-36L
sg5
L-36L
sg6
L-36L
sg10
L-36L
sg13
L-36L
sg38
L76L
sg39
L77L
sg40
L78L
sg41
L79L
sg42
L80L
sg43
L81L
ssL50L
(dp109
g11
L-31L
sg2
L-31L
sg3
L-31L
sg4
L83L
sg5
L-31L
sg6
L-31L
sg10
L-31L
sg13
L-31L
sg89
L82L
sg90
L84L
sg91
L85L
sg38
L76L
sg39
L77L
sg40
L78L
sg41
L79L
sg42
L80L
sg43
L81L
ssL51L
(dp110
g11
L-32L
sg2
L-32L
sg3
L-32L
sg4
L-32L
sg5
L-32L
sg6
L-32L
sg10
L-32L
sg13
L-32L
ssL52L
(dp111
g11
L-9L
sg2
L-9L
sg3
L-9L
sg4
L-9L
sg5
L-9L
sg6
L-9L
sg10
L-9L
sg13
L-9L
sg38
L-9L
sg39
L-9L
sg40
L-9L
sg41
L-9L
sg42
L-9L
sg43
L-9L
ssL53L
(dp112
g11
L-8L
sg2
L-8L
sg3
L-8L
sg4
L27L
sg5
L-8L
sg6
L-8L
sg10
L-8L
sg13
L-8L
sg38
L-8L
sg39
L-8L
sg40
L-8L
sg41
L-8L
sg42
L-8L
sg43
L-8L
sg32
L26L
sg33
L28L
sg34
L29L
sg95
L87L
ssL54L
(dp113
g11
L-35L
sg2
L-35L
sg3
L-35L
sg4
L-35L
sg5
L-35L
sg6
L-35L
sg10
L-35L
sg13
L-35L
ssL55L
(dp114
g11
L-37L
sg2
L-37L
sg3
L-37L
sg4
L-37L
sg5
L-37L
sg6
L-37L
sg10
L-37L
sg13
L-37L
ssL56L
(dp115
g11
L-38L
sg2
L-38L
sg3
L-38L
sg4
L-38L
sg5
L-38L
sg6
L-38L
sg10
L-38L
sg13
L-38L
ssL57L
(dp116
g11
L-39L
sg2
L-39L
sg3
L-39L
sg4
L-39L
sg5
L-39L
sg6
L-39L
sg10
L-39L
sg13
L-39L
ssL58L
(dp117
g13
L101L
sVCOMMA
p118
L102L
sg2
L7L
sg3
L6L
sg4
L9L
sg5
L12L
sg6
L13L
ssL59L
(dp119
g11
L-7L
sg2
L-7L
sg3
L-7L
sg4
L-7L
sg5
L-7L
sg6
L-7L
sg10
L-7L
sg13
L-7L
sg27
L-7L
sg29
L-7L
ssL60L
(dp120
g19
L103L
sg20
L104L
sg21
L105L
sg22
L106L
sg38
L-114L
sg39
L-114L
sg40
L-114L
sg41
L-114L
sg42
L-114L
sg43
L-114L
sg11
L-114L
sg2
L-114L
sg3
L-114L
sg5
L-114L
sg6
L-114L
sg10
L-114L
sg13
L-114L
sg27
L-114L
sg44
L-114L
sg28
L-114L
sg29
L-114L
sg15
L-114L
sg17
L-114L
sg25
L-114L
sg26
L-114L
ssL61L
(dp121
g15
L-11L
sg16
L-11L
sg17
L-11L
sg2
L-11L
sg3
L-11L
sg4
L-11L
sg5
L-11L
sg6
L-11L
sg87
L-11L
sg38
L-11L
sg39
L-11L
sg40
L-11L
sg41
L-11L
sg42
L-11L
sg43
L-11L
sg11
L-11L
sg10
L-11L
sg13
L-11L
sg25
L-11L
sg26
L-11L
sg27
L-11L
sg29
L-11L
ssL62L
(dp122
g19
L103L
sg20
L104L
sg21
L105L
sg22
L106L
sg38
L-115L
sg39
L-115L
sg40
L-115L
sg41
L-115L
sg42
L-115L
sg43
L-115L
sg11
L-115L
sg2
L-115L
sg3
L-115L
sg5
L-115L
sg6
L-115L
sg10
L-115L
sg13
L-115L
sg27
L-115L
sg44
L-115L
sg28
L-115L
sg29
L-115L
sg15
L-115L
sg17
L-115L
sg25
L-115L
sg26
L-115L
ssL63L
(dp123
g15
L-13L
sg16
L-13L
sg17
L-13L
sg2
L-13L
sg3
L-13L
sg4
L-13L
sg5
L-13L
sg6
L-13L
sg87
L-13L
sg38
L-13L
sg39
L-13L
sg40
L-13L
sg41
L-13L
sg42
L-13L
sg43
L-13L
sg11
L-13L
sg10
L-13L
sg13
L-13L
sg25
L-13L
sg26
L-13L
sg27
L-13L
sg29
L-13L
ssL64L
(dp124
g19
L103L
sg20
L104L
sg21
L105L
sg22
L106L
sg38
L-116L
sg39
L-116L
sg40
L-116L
sg41
L-116L
sg42
L-116L
sg43
L-116L
sg11
L-116L
sg2
L-116L
sg3
L-116L
sg5
L-116L
sg6
L-116L
sg10
L-116L
sg13
L-116L
sg27
L-116L
sg44
L-116L
sg28
L-116L
sg29
L-116L
sg15
L-116L
sg17
L-116L
sg25
L-116L
sg26
L-116L
ssL65L
(dp125
g15
L-15L
sg16
L-15L
sg17
L-15L
sg2
L-15L
sg3
L-15L
sg4
L-15L
sg5
L-15L
sg6
L-15L
sg87
L-15L
sg38
L-15L
sg39
L-15L
sg40
L-15L
sg41
L-15L
sg42
L-15L
sg43
L-15L
sg11
L-15L
sg10
L-15L
sg13
L-15L
sg25
L-15L
sg26
L-15L
sg27
L-15L
sg29
L-15L
ssL66L
(dp126
g19
L103L
sg20
L104L
sg21
L105L
sg22
L106L
sg38
L-117L
sg39
L-117L
sg40
L-117L
sg41
L-117L
sg42
L-117L
sg43
L-117L
sg11
L-117L
sg2
L-117L
sg3
L-117L
sg5
L-117L
sg6
L-117L
sg10
L-117L
sg13
L-117L
sg27
L-117L
sg44
L-117L
sg28
L-117L
sg29
L-117L
sg15
L-117L
sg17
L-117L
sg25
L-117L
sg26
L-117L
ssL67L
(dp127
g15
L-17L
sg16
L-17L
sg17
L-17L
sg2
L-17L
sg3
L-17L
sg4
L-17L
sg5
L-17L
sg6
L-17L
sg87
L-17L
sg38
L-17L
sg39
L-17L
sg40
L-17L
sg41
L-17L
sg42
L-17L
sg43
L-17L
sg11
L-17L
sg10
L-17L
sg13
L-17L
sg25
L-17L
sg26
L-17L
sg27
L-17L
sg29
L-17L
ssL68L
(dp128
g15
L-10L
sg16
L-10L
sg17
L-10L
sg2
L-10L
sg3
L-10L
sg4
L104L
sg5
L-10L
sg6
L-10L
sg87
L-10L
sg38
L-10L
sg39
L-10L
sg40
L-10L
sg41
L-10L
sg42
L-10L
sg43
L-10L
sg11
L-10L
sg10
L-10L
sg13
L-10L
sg25
L-10L
sg26
L-10L
sg27
L-10L
sg29
L-10L
sg89
L103L
sg90
L105L
sg91
L106L
ssL69L
(dp129
g15
L-12L
sg16
L-12L
sg17
L-12L
sg2
L-12L
sg3
L-12L
sg4
L104L
sg5
L-12L
sg6
L-12L
sg87
L-12L
sg38
L-12L
sg39
L-12L
sg40
L-12L
sg41
L-12L
sg42
L-12L
sg43
L-12L
sg11
L-12L
sg10
L-12L
sg13
L-12L
sg25
L-12L
sg26
L-12L
sg27
L-12L
sg29
L-12L
sg89
L103L
sg90
L105L
sg91
L106L
ssL70L
(dp130
g15
L-14L
sg16
L-14L
sg17
L-14L
sg2
L-14L
sg3
L-14L
sg4
L104L
sg5
L-14L
sg6
L-14L
sg87
L-14L
sg38
L-14L
sg39
L-14L
sg40
L-14L
sg41
L-14L
sg42
L-14L
sg43
L-14L
sg11
L-14L
sg10
L-14L
sg13
L-14L
sg25
L-14L
sg26
L-14L
sg27
L-14L
sg29
L-14L
sg89
L103L
sg90
L105L
sg91
L106L
ssL71L
(dp131
g15
L-16L
sg16
L-16L
sg17
L-16L
sg2
L-16L
sg3
L-16L
sg4
L104L
sg5
L-16L
sg6
L-16L
sg87
L-16L
sg38
L-16L
sg39
L-16L
sg40
L-16L
sg41
L-16L
sg42
L-16L
sg43
L-16L
sg11
L-16L
sg10
L-16L
sg13
L-16L
sg25
L-16L
sg26
L-16L
sg27
L-16L
sg29
L-16L
sg89
L103L
sg90
L105L
sg91
L106L
ssL72L
(dp132
g19
L-122L
sg20
L-122L
sg21
L-122L
sg22
L-122L
sg38
L-122L
sg39
L-122L
sg40
L-122L
sg41
L-122L
sg42
L-122L
sg43
L-122L
sg11
L-122L
sg2
L-122L
sg3
L-122L
sg5
L-122L
sg6
L-122L
sg10
L-122L
sg13
L-122L
sg27
L-122L
sg44
L-122L
sg28
L-122L
sg29
L-122L
sg15
L-122L
sg17
L-122L
sg25
L-122L
sg26
L-122L
ssL73L
(dp133
g19
L-123L
sg20
L-123L
sg21
L-123L
sg22
L-123L
sg38
L-123L
sg39
L-123L
sg40
L-123L
sg41
L-123L
sg42
L-123L
sg43
L-123L
sg11
L-123L
sg2
L-123L
sg3
L-123L
sg5
L-123L
sg6
L-123L
sg10
L-123L
sg13
L-123L
sg27
L-123L
sg44
L-123L
sg28
L-123L
sg29
L-123L
sg15
L-123L
sg17
L-123L
sg25
L-123L
sg26
L-123L
ssL74L
(dp134
VBOOL
p135
L109L
sg2
L111L
sg3
L6L
sg4
L9L
sg5
L12L
sg6
L13L
ssL75L
(dp136
g2
L7L
sg3
L6L
sg4
L9L
sg5
L12L
sg6
L13L
ssL76L
(dp137
g2
L-67L
sg3
L-67L
sg4
L-67L
sg5
L-67L
sg6
L-67L
ssL77L
(dp138
g2
L-68L
sg3
L-68L
sg4
L-68L
sg5
L-68L
sg6
L-68L
ssL78L
(dp139
g2
L-69L
sg3
L-69L
sg4
L-69L
sg5
L-69L
sg6
L-69L
ssL79L
(dp140
g2
L-70L
sg3
L-70L
sg4
L-70L
sg5
L-70L
sg6
L-70L
ssL80L
(dp141
g2
L-71L
sg3
L-71L
sg4
L-71L
sg5
L-71L
sg6
L-71L
ssL81L
(dp142
g2
L-72L
sg3
L-72L
sg4
L-72L
sg5
L-72L
sg6
L-72L
ssL82L
(dp143
g66
L61L
sg4
L9L
sg5
L12L
sg6
L13L
ssL83L
(dp144
g68
L63L
sg4
L9L
sg5
L12L
sg6
L13L
ssL84L
(dp145
g70
L65L
sg4
L9L
sg5
L12L
sg6
L13L
ssL85L
(dp146
g72
L67L
sg4
L9L
sg5
L12L
sg6
L13L
ssL86L
(dp147
g2
L7L
sg3
L6L
sg4
L9L
sg5
L12L
sg6
L13L
ssL87L
(dp148
VNUMBER
p149
L116L
sg2
L7L
sg3
L6L
sg4
L9L
sg6
L13L
ssL88L
(dp150
VLEFTBRACKET
p151
L120L
sg26
L48L
sg104
L96L
sg17
L21L
sg3
L6L
sg4
L9L
sg5
L12L
sg6
L13L
ssL89L
(dp152
VBOOL
p153
L123L
sg2
L111L
sg3
L6L
sg4
L9L
sg5
L12L
sg6
L13L
ssL90L
(dp154
g27
L125L
sVCOMMA
p155
L126L
ssL91L
(dp156
g11
L-80L
sg2
L-80L
sg3
L-80L
sg4
L-80L
sg5
L-80L
sg6
L-80L
sg10
L-80L
sg13
L-80L
sVPERIOD
p157
L-80L
sg27
L-80L
sg29
L-80L
ssL92L
(dp158
g27
L-91L
sg155
L-91L
sg29
L-91L
ssL93L
(dp159
g27
L-92L
sg155
L-92L
sg29
L-92L
ssL94L
(dp160
VCOMMA
p161
L127L
sg27
L-106L
sg29
L-106L
ssL95L
(dp162
g24
L128L
sg27
L-107L
sg29
L-107L
sg25
L47L
sg26
L48L
ssL96L
(dp163
VASTERISK_PERIOD
p164
L130L
sg96
L88L
sg24
L-8L
sg25
L87L
sg27
L-8L
sg29
L-8L
sg32
L26L
sVMINUS
p165
L27L
sg33
L28L
sg34
L29L
ssL97L
(dp166
g27
L-105L
sg155
L-105L
sg29
L-105L
sg19
L22L
sg20
L23L
sg21
L24L
sg22
L25L
ssL98L
(dp167
g27
L-108L
sg155
L-108L
sg29
L-108L
ssL99L
(dp168
g11
L-81L
sg2
L-81L
sg3
L-81L
sg4
L-81L
sg5
L-81L
sg6
L-81L
sg10
L-81L
sg13
L-81L
sg157
L-81L
sg27
L-81L
sg29
L-81L
ssL100L
(dp169
g104
L96L
sg17
L21L
sg3
L6L
sg4
L9L
sg5
L12L
sg6
L13L
ssL101L
(dp170
g11
L-5L
sg2
L-5L
sg3
L-5L
sg4
L-5L
sg5
L-5L
sg6
L-5L
sg10
L-5L
sg13
L-5L
sg27
L-5L
sg29
L-5L
ssL102L
(dp171
VRIGHTBRACE
p172
L132L
sg2
L7L
sg3
L6L
sg4
L9L
sg5
L12L
sg6
L13L
ssL103L
(dp173
g4
L9L
sg5
L12L
sg6
L13L
ssL104L
(dp174
g4
L9L
sg5
L12L
sg6
L13L
ssL105L
(dp175
g4
L9L
sg5
L12L
sg6
L13L
ssL106L
(dp176
g4
L9L
sg5
L12L
sg6
L13L
ssL107L
(dp177
VCOLON
p178
L133L
ssL108L
(dp179
g44
L134L
sg19
L22L
sg20
L23L
sg21
L24L
sg22
L25L
ssL109L
(dp180
VCOLON
p181
L135L
ssL110L
(dp182
VCOLON
p183
L136L
ssL111L
(dp184
g178
L-8L
sg11
L-8L
sg2
L-8L
sg3
L-8L
sg4
L27L
sg5
L-8L
sg6
L-8L
sg10
L-8L
sg13
L-8L
sg32
L26L
sg33
L28L
sg34
L29L
sg96
L88L
ssL112L
(dp185
g28
L-73L
sg11
L-73L
sg2
L-73L
sg3
L-73L
sg4
L-73L
sg5
L-73L
sg6
L-73L
sg10
L-73L
sg13
L-73L
ssL113L
(dp186
g28
L-74L
sg11
L-74L
sg2
L-74L
sg3
L-74L
sg4
L23L
sg5
L-74L
sg6
L-74L
sg10
L-74L
sg13
L-74L
sg19
L22L
sg21
L24L
sg22
L25L
ssL114L
(dp187
g28
L-75L
sg11
L-75L
sg2
L-75L
sg3
L-75L
sg4
L-75L
sg5
L-75L
sg6
L-75L
sg10
L-75L
sg13
L-75L
ssL115L
(dp188
g31
L137L
ssL116L
(dp189
VRIGHTBRACKET
p190
L138L
sg45
L-119L
sg46
L-119L
sg19
L-119L
sg20
L-119L
sg21
L-119L
sg22
L-119L
ssL117L
(dp191
g29
L139L
sVCOMMA
p192
L140L
ssL118L
(dp193
VRIGHTPAREN
p194
L141L
sVCOMMA
p195
L142L
ssL119L
(dp196
g157
L143L
sVCOMMA
p197
L144L
ssL120L
(dp198
g103
L91L
sg25
L47L
sg26
L48L
sg104
L96L
sg17
L21L
sg3
L6L
sg4
L9L
sg5
L12L
sg6
L13L
ssL121L
(dp199
VCOLON
p200
L147L
ssL122L
(dp201
VCOLON
p202
L148L
sg19
L22L
sg20
L23L
sg21
L24L
sg22
L25L
ssL123L
(dp203
VCOLON
p204
L149L
ssL124L
(dp205
VCOLON
p206
L150L
ssL125L
(dp207
g11
L-78L
sg2
L-78L
sg3
L-78L
sg4
L-78L
sg5
L-78L
sg6
L-78L
sg10
L-78L
sg13
L-78L
sg157
L-78L
sg27
L-78L
sg29
L-78L
ssL126L
(dp208
VRIGHTBRACKET
p209
L151L
sg104
L96L
sg3
L6L
sg17
L21L
sg4
L9L
sg5
L12L
sg6
L13L
ssL127L
(dp210
g27
L-93L
sg155
L-93L
sg29
L-93L
sg17
L21L
sg2
L7L
sg3
L6L
sg4
L9L
sg5
L12L
sg6
L13L
ssL128L
(dp211
g27
L-94L
sg155
L-94L
sg29
L-94L
sVIDENTIFIER
p212
L161L
sg3
L6L
sg17
L21L
sg25
L47L
sg26
L48L
sg4
L9L
sg5
L12L
sg6
L13L
ssL129L
(dp213
g27
L-104L
sg155
L-104L
sg29
L-104L
ssL130L
(dp214
VIDENTIFIER
p215
L162L
ssL131L
(dp216
VRIGHTBRACKET
p217
L163L
sVCOMMA
p218
L164L
ssL132L
(dp219
g11
L-6L
sg2
L-6L
sg3
L-6L
sg4
L-6L
sg5
L-6L
sg6
L-6L
sg10
L-6L
sg13
L-6L
sg27
L-6L
sg29
L-6L
ssL133L
(dp220
VBOOL
p221
L167L
sg2
L111L
sg3
L6L
sg4
L9L
sg5
L12L
sg6
L13L
ssL134L
(dp222
VBOOL
p223
L171L
sg2
L111L
sg3
L6L
sg4
L9L
sg5
L12L
sg6
L13L
ssL135L
(dp224
VBOOL
p225
L174L
sg2
L111L
sg3
L6L
sg4
L9L
sg5
L12L
sg6
L13L
ssL136L
(dp226
g2
L7L
sg3
L6L
sg4
L9L
sg5
L12L
sg6
L13L
ssL137L
(dp227
g11
L-18L
sg2
L-18L
sg3
L-18L
sg4
L-18L
sg5
L-18L
sg6
L-18L
sg10
L-18L
sg13
L-18L
sg27
L-18L
sg29
L-18L
sVPERIOD
p228
L178L
ssL138L
(dp229
VPERIOD
p230
L179L
ssL139L
(dp231
g11
L-85L
sg2
L-85L
sg3
L-85L
sg4
L-85L
sg5
L-85L
sg6
L-85L
sg10
L-85L
sg13
L-85L
sg27
L-85L
sg183
L-85L
sg29
L-85L
ssL140L
(dp232
VRIGHTPAREN
p233
L180L
sg104
L96L
sg3
L6L
sg17
L21L
sg4
L9L
sg5
L12L
sg6
L13L
ssL141L
(dp234
g11
L-86L
sg2
L-86L
sg3
L-86L
sg4
L-86L
sg5
L-86L
sg6
L-86L
sg10
L-86L
sg13
L-86L
sg27
L-86L
sg183
L-86L
sg29
L-86L
ssL142L
(dp235
VRIGHTPAREN
p236
L181L
sg25
L47L
sg26
L48L
ssL143L
(dp237
VPERIOD
p238
L183L
ssL144L
(dp239
g25
L47L
sg26
L48L
ssL145L
(dp240
VRIGHTBRACKET
p241
L185L
sVCOMMA
p242
L186L
ssL146L
(dp243
g197
L144L
ssL147L
(dp244
VBOOL
p245
L189L
sg2
L111L
sg3
L6L
sg4
L9L
sg5
L12L
sg6
L13L
ssL148L
(dp246
VBOOL
p247
L193L
sg2
L111L
sg3
L6L
sg4
L9L
sg5
L12L
sg6
L13L
ssL149L
(dp248
VBOOL
p249
L196L
sg2
L111L
sg3
L6L
sg4
L9L
sg5
L12L
sg6
L13L
ssL150L
(dp250
g2
L7L
sg3
L6L
sg4
L9L
sg5
L12L
sg6
L13L
ssL151L
(dp251
g11
L-79L
sg2
L-79L
sg3
L-79L
sg4
L-79L
sg5
L-79L
sg6
L-79L
sg10
L-79L
sg13
L-79L
sg157
L-79L
sg27
L-79L
sg29
L-79L
ssL152L
(dp252
g27
L-95L
sg155
L-95L
sg29
L-95L
ssL153L
(dp253
g27
L-96L
sg155
L-96L
sg29
L-96L
ssL154L
(dp254
g27
L-97L
sg155
L-97L
sg29
L-97L
ssL155L
(dp255
g27
L-106L
sg155
L-106L
sg29
L-106L
ssL156L
(dp256
g27
L-98L
sg155
L-98L
sg29
L-98L
ssL157L
(dp257
g27
L-99L
sg155
L-99L
sg29
L-99L
ssL158L
(dp258
g27
L-100L
sg155
L-100L
sg29
L-100L
ssL159L
(dp259
g27
L-101L
sg155
L-101L
sg29
L-101L
ssL160L
(dp260
g27
L-102L
sg155
L-102L
sg29
L-102L
ssL161L
(dp261
VASTERISK_PERIOD
p262
L200L
sg27
L-8L
sg155
L-8L
sg29
L-8L
sg32
L26L
sg165
L27L
sg33
L28L
sg34
L29L
ssL162L
(dp263
g27
L-109L
sg155
L-109L
sg29
L-109L
ssL163L
(dp264
VPERIOD
p265
L201L
ssL164L
(dp266
g104
L96L
sg3
L6L
sg17
L21L
sg4
L9L
sg5
L12L
sg6
L13L
ssL165L
(dp267
g11
L-41L
sg2
L-41L
sg3
L-41L
sg4
L-41L
sg5
L-41L
sg6
L-41L
sg10
L-41L
sg13
L-41L
ssL166L
(dp268
g11
L-42L
sg2
L-42L
sg3
L-42L
sg4
L23L
sg5
L-42L
sg6
L-42L
sg10
L-42L
sg13
L-42L
sg19
L22L
sg21
L24L
sg22
L25L
ssL167L
(dp269
g11
L-43L
sg2
L-43L
sg3
L-43L
sg4
L-43L
sg5
L-43L
sg6
L-43L
sg10
L-43L
sg13
L-43L
ssL168L
(dp270
g11
L-44L
sg2
L-44L
sg3
L-44L
sg4
L-44L
sg5
L-44L
sg6
L-44L
sg10
L-44L
sg13
L-44L
ssL169L
(dp271
g11
L-45L
sg2
L-45L
sg3
L-45L
sg4
L-45L
sg5
L-45L
sg6
L-45L
sg10
L-45L
sg13
L-45L
ssL170L
(dp272
g11
L-48L
sg2
L-48L
sg3
L-48L
sg4
L23L
sg5
L-48L
sg6
L-48L
sg10
L-48L
sg13
L-48L
sg19
L22L
sg21
L24L
sg22
L25L
ssL171L
(dp273
g11
L-49L
sg2
L-49L
sg3
L-49L
sg4
L-49L
sg5
L-49L
sg6
L-49L
sg10
L-49L
sg13
L-49L
ssL172L
(dp274
g11
L-50L
sg2
L-50L
sg3
L-50L
sg4
L-50L
sg5
L-50L
sg6
L-50L
sg10
L-50L
sg13
L-50L
ssL173L
(dp275
g11
L-46L
sg2
L-46L
sg3
L-46L
sg4
L-46L
sg5
L-46L
sg6
L-46L
sg10
L-46L
sg13
L-46L
ssL174L
(dp276
g11
L-53L
sg2
L-53L
sg3
L-53L
sg4
L-53L
sg5
L-53L
sg6
L-53L
sg10
L-53L
sg13
L-53L
ssL175L
(dp277
g11
L-51L
sg2
L-51L
sg3
L-51L
sg4
L23L
sg5
L-51L
sg6
L-51L
sg10
L-51L
sg13
L-51L
sg19
L22L
sg21
L24L
sg22
L25L
ssL176L
(dp278
g11
L-52L
sg2
L-52L
sg3
L-52L
sg4
L-52L
sg5
L-52L
sg6
L-52L
sg10
L-52L
sg13
L-52L
ssL177L
(dp279
g11
L-47L
sg2
L-47L
sg3
L-47L
sg4
L-47L
sg5
L-47L
sg6
L-47L
sg10
L-47L
sg13
L-47L
ssL178L
(dp280
VIDENTIFIER
p281
L202L
ssL179L
(dp282
VIDENTIFIER
p283
L203L
ssL180L
(dp284
g11
L-87L
sg2
L-87L
sg3
L-87L
sg4
L-87L
sg5
L-87L
sg6
L-87L
sg10
L-87L
sg13
L-87L
sg27
L-87L
sg183
L-87L
sg29
L-87L
ssL181L
(dp285
g11
L-88L
sg2
L-88L
sg3
L-88L
sg4
L-88L
sg5
L-88L
sg6
L-88L
sg10
L-88L
sg13
L-88L
sg27
L-88L
sg183
L-88L
sg29
L-88L
ssL182L
(dp286
g194
L-84L
sg195
L-84L
sg241
L-84L
ssL183L
(dp287
VPERIOD
p288
L204L
ssL184L
(dp289
g194
L-83L
sg195
L-83L
sg241
L-83L
ssL185L
(dp290
VPERIOD
p291
L205L
ssL186L
(dp292
g25
L47L
sg26
L48L
ssL187L
(dp293
g11
L-54L
sg2
L-54L
sg3
L-54L
sg4
L-54L
sg5
L-54L
sg6
L-54L
sg10
L-54L
sg13
L-54L
ssL188L
(dp294
g11
L-55L
sg2
L-55L
sg3
L-55L
sg4
L23L
sg5
L-55L
sg6
L-55L
sg10
L-55L
sg13
L-55L
sg19
L22L
sg21
L24L
sg22
L25L
ssL189L
(dp295
g11
L-56L
sg2
L-56L
sg3
L-56L
sg4
L-56L
sg5
L-56L
sg6
L-56L
sg10
L-56L
sg13
L-56L
ssL190L
(dp296
g11
L-57L
sg2
L-57L
sg3
L-57L
sg4
L-57L
sg5
L-57L
sg6
L-57L
sg10
L-57L
sg13
L-57L
ssL191L
(dp297
g11
L-58L
sg2
L-58L
sg3
L-58L
sg4
L-58L
sg5
L-58L
sg6
L-58L
sg10
L-58L
sg13
L-58L
ssL192L
(dp298
g11
L-61L
sg2
L-61L
sg3
L-61L
sg4
L23L
sg5
L-61L
sg6
L-61L
sg10
L-61L
sg13
L-61L
sg19
L22L
sg21
L24L
sg22
L25L
ssL193L
(dp299
g11
L-62L
sg2
L-62L
sg3
L-62L
sg4
L-62L
sg5
L-62L
sg6
L-62L
sg10
L-62L
sg13
L-62L
ssL194L
(dp300
g11
L-63L
sg2
L-63L
sg3
L-63L
sg4
L-63L
sg5
L-63L
sg6
L-63L
sg10
L-63L
sg13
L-63L
ssL195L
(dp301
g11
L-59L
sg2
L-59L
sg3
L-59L
sg4
L-59L
sg5
L-59L
sg6
L-59L
sg10
L-59L
sg13
L-59L
ssL196L
(dp302
g11
L-66L
sg2
L-66L
sg3
L-66L
sg4
L-66L
sg5
L-66L
sg6
L-66L
sg10
L-66L
sg13
L-66L
ssL197L
(dp303
g11
L-64L
sg2
L-64L
sg3
L-64L
sg4
L23L
sg5
L-64L
sg6
L-64L
sg10
L-64L
sg13
L-64L
sg19
L22L
sg21
L24L
sg22
L25L
ssL198L
(dp304
g11
L-65L
sg2
L-65L
sg3
L-65L
sg4
L-65L
sg5
L-65L
sg6
L-65L
sg10
L-65L
sg13
L-65L
ssL199L
(dp305
g11
L-60L
sg2
L-60L
sg3
L-60L
sg4
L-60L
sg5
L-60L
sg6
L-60L
sg10
L-60L
sg13
L-60L
ssL200L
(dp306
VIDENTIFIER
p307
L206L
ssL201L
(dp308
VPERIOD
p309
L207L
ssL202L
(dp310
g11
L-19L
sg2
L-19L
sg3
L-19L
sg4
L-19L
sg5
L-19L
sg6
L-19L
sg10
L-19L
sg13
L-19L
sg27
L-19L
sg29
L-19L
ssL203L
(dp311
g11
L-20L
sg2
L-20L
sg3
L-20L
sg4
L-20L
sg5
L-20L
sg6
L-20L
sg10
L-20L
sg13
L-20L
sg27
L-20L
sg29
L-20L
ssL204L
(dp312
VRIGHTPAREN
p313
L208L
ssL205L
(dp314
VPERIOD
p315
L209L
ssL206L
(dp316
g27
L-103L
sg155
L-103L
sg29
L-103L
ssL207L
(dp317
VPERIOD
p318
L210L
ssL208L
(dp319
g11
L-89L
sg2
L-89L
sg3
L-89L
sg4
L-89L
sg5
L-89L
sg6
L-89L
sg10
L-89L
sg13
L-89L
sg27
L-89L
sg183
L-89L
sg29
L-89L
ssL209L
(dp320
VPERIOD
p321
L211L
ssL210L
(dp322
VRIGHTPAREN
p323
L212L
ssL211L
(dp324
VRIGHTPAREN
p325
L213L
ssL212L
(dp326
g11
L-82L
sg2
L-82L
sg3
L-82L
sg4
L-82L
sg5
L-82L
sg6
L-82L
sg10
L-82L
sg13
L-82L
sg157
L-82L
sg27
L-82L
sg29
L-82L
ssL213L
(dp327
g11
L-90L
sg2
L-90L
sg3
L-90L
sg4
L-90L
sg5
L-90L
sg6
L-90L
sg10
L-90L
sg13
L-90L
sg27
L-90L
sg183
L-90L
sg29
L-90L
ss.(dp0
L0L
(dp1
Vtop
p2
L1L
sVobjectlist
p3
L2L
sVobjectitem
p4
L3L
sVobjectkey
p5
L4L
sVnumber
p6
L5L
sVblock
p7
L8L
sVint
p8
L10L
sVfloat
p9
L11L
ssL1L
(dp10
sL2L
(dp11
Vobjectitem
p12
L14L
sg5
L4L
sg6
L5L
sg7
L8L
sg8
L10L
sg9
L11L
ssL3L
(dp13
sL4L
(dp14
g5
L16L
sg6
L5L
sVobject
p15
L18L
sVblock
p16
L20L
sg8
L10L
sg9
L11L
ssL5L
(dp17
sL6L
(dp18
sL7L
(dp19
sL8L
(dp20
sL9L
(dp21
Vint
p22
L30L
sVfloat
p23
L31L
ssL10L
(dp24
Vexp
p25
L32L
ssL11L
(dp26
Vexp
p27
L35L
ssL12L
(dp28
sL13L
(dp29
sL14L
(dp30
sL15L
(dp31
Vobjectitem
p32
L36L
sg5
L4L
sg6
L5L
sg7
L8L
sg8
L10L
sg9
L11L
ssL16L
(dp33
Vobjectkey
p34
L16L
sVobject
p35
L18L
sg16
L20L
sVnumber
p36
L5L
sg8
L10L
sg9
L11L
ssL17L
(dp37
g5
L37L
sg6
L38L
sg15
L42L
sVlist
p38
L43L
sVobjectbrackets
p39
L44L
sVfunction
p40
L45L
sVbooleanexp
p41
L46L
sg8
L10L
sg9
L11L
ssL18L
(dp42
sL19L
(dp43
Vobjectkey
p44
L49L
sVnumber
p45
L50L
sVobject
p46
L54L
sVlist
p47
L55L
sVobjectbrackets
p48
L56L
sVbooleanexp
p49
L57L
sg8
L10L
sg9
L11L
ssL20L
(dp50
sL21L
(dp51
Vobjectlist
p52
L58L
sg4
L3L
sg5
L4L
sg6
L5L
sg7
L8L
sg8
L10L
sg9
L11L
ssL22L
(dp53
Vnumber
p54
L60L
sg8
L10L
sg9
L11L
ssL23L
(dp55
Vnumber
p56
L62L
sg8
L10L
sg9
L11L
ssL24L
(dp57
Vnumber
p58
L64L
sg8
L10L
sg9
L11L
ssL25L
(dp59
Vnumber
p60
L66L
sg8
L10L
sg9
L11L
ssL26L
(dp61
g36
L68L
sg8
L10L
sg9
L11L
ssL27L
(dp62
Vnumber
p63
L69L
sg8
L10L
sg9
L11L
ssL28L
(dp64
Vnumber
p65
L70L
sg8
L10L
sg9
L11L
ssL29L
(dp66
Vnumber
p67
L71L
sg8
L10L
sg9
L11L
ssL30L
(dp68
sL31L
(dp69
sL32L
(dp70
sL33L
(dp71
sL34L
(dp72
sL35L
(dp73
sL36L
(dp74
sL37L
(dp75
Voperator
p76
L75L
ssL38L
(dp77
Voperator
p78
L86L
ssL39L
(dp79
sL40L
(dp80
sL41L
(dp81
sL42L
(dp82
sL43L
(dp83
sL44L
(dp84
sL45L
(dp85
sL46L
(dp86
sL47L
(dp87
Vlistitems
p88
L90L
sVlistitem
p89
L92L
sVfunction
p90
L93L
sVobject
p91
L94L
sVobjectkey
p92
L95L
sVnumber
p93
L97L
sVobjectbrackets
p94
L98L
sg8
L10L
sg9
L11L
ssL48L
(dp95
sL49L
(dp96
g76
L75L
ssL50L
(dp97
g78
L86L
ssL51L
(dp98
sL52L
(dp99
sL53L
(dp100
sL54L
(dp101
sL55L
(dp102
sL56L
(dp103
sL57L
(dp104
sL58L
(dp105
g12
L14L
sg5
L4L
sg6
L5L
sg7
L8L
sg8
L10L
sg9
L11L
ssL59L
(dp106
sL60L
(dp107
sL61L
(dp108
sL62L
(dp109
sL63L
(dp110
sL64L
(dp111
sL65L
(dp112
sL66L
(dp113
sL67L
(dp114
sL68L
(dp115
sL69L
(dp116
sL70L
(dp117
sL71L
(dp118
sL72L
(dp119
sL73L
(dp120
sL74L
(dp121
Vobjectkey
p122
L107L
sVnumber
p123
L108L
sVfunction
p124
L110L
sg8
L10L
sg9
L11L
ssL75L
(dp125
Vobjectkey
p126
L112L
sVnumber
p127
L113L
sg8
L10L
sg9
L11L
ssL76L
(dp128
sL77L
(dp129
sL78L
(dp130
sL79L
(dp131
sL80L
(dp132
sL81L
(dp133
sL82L
(dp134
Vnumber
p135
L60L
sg8
L10L
sg9
L11L
ssL83L
(dp136
Vnumber
p137
L62L
sg8
L10L
sg9
L11L
ssL84L
(dp138
Vnumber
p139
L64L
sg8
L10L
sg9
L11L
ssL85L
(dp140
Vnumber
p141
L66L
sg8
L10L
sg9
L11L
ssL86L
(dp142
Vnumber
p143
L5L
sVobjectkey
p144
L114L
sg8
L10L
sg9
L11L
ssL87L
(dp145
Vobjectkey
p146
L115L
sg36
L5L
sg8
L10L
sg9
L11L
ssL88L
(dp147
Vlistitems
p148
L117L
sVlist_of_lists
p149
L118L
sVlist
p150
L119L
sg89
L92L
sg90
L93L
sg91
L94L
sg92
L95L
sg93
L97L
sg94
L98L
sg8
L10L
sg9
L11L
ssL89L
(dp151
Vobjectkey
p152
L121L
sVnumber
p153
L122L
sVfunction
p154
L124L
sg8
L10L
sg9
L11L
ssL90L
(dp155
sL91L
(dp156
sL92L
(dp157
sL93L
(dp158
sL94L
(dp159
sL95L
(dp160
Vlist
p161
L129L
ssL96L
(dp162
sL97L
(dp163
sL98L
(dp164
sL99L
(dp165
sL100L
(dp166
Vlistitems
p167
L131L
sg89
L92L
sg90
L93L
sg91
L94L
sg92
L95L
sg93
L97L
sg94
L98L
sg8
L10L
sg9
L11L
ssL101L
(dp168
sL102L
(dp169
g32
L36L
sg5
L4L
sg6
L5L
sg7
L8L
sg8
L10L
sg9
L11L
ssL103L
(dp170
g135
L60L
sg8
L10L
sg9
L11L
ssL104L
(dp171
g137
L62L
sg8
L10L
sg9
L11L
ssL105L
(dp172
g139
L64L
sg8
L10L
sg9
L11L
ssL106L
(dp173
g141
L66L
sg8
L10L
sg9
L11L
ssL107L
(dp174
sL108L
(dp175
sL109L
(dp176
sL110L
(dp177
sL111L
(dp178
sL112L
(dp179
sL113L
(dp180
sL114L
(dp181
sL115L
(dp182
sL116L
(dp183
sL117L
(dp184
sL118L
(dp185
sL119L
(dp186
sL120L
(dp187
Vlist_of_lists
p188
L145L
sg88
L90L
sVlist
p189
L146L
sg89
L92L
sg90
L93L
sg91
L94L
sg92
L95L
sg93
L97L
sg94
L98L
sg8
L10L
sg9
L11L
ssL121L
(dp190
sL122L
(dp191
sL123L
(dp192
sL124L
(dp193
sL125L
(dp194
sL126L
(dp195
Vlistitem
p196
L152L
sVfunction
p197
L153L
sVobjectkey
p198
L154L
sg93
L97L
sVobject
p199
L155L
sg94
L98L
sg8
L10L
sg9
L11L
ssL127L
(dp200
g91
L156L
sVobjectkey
p201
L157L
sg36
L5L
sg8
L10L
sg9
L11L
ssL128L
(dp202
g92
L158L
sVobject
p203
L159L
sg161
L160L
sg36
L5L
sg8
L10L
sg9
L11L
ssL129L
(dp204
sL130L
(dp205
sL131L
(dp206
sL132L
(dp207
sL133L
(dp208
g122
L165L
sg123
L166L
sg124
L168L
sg8
L10L
sg9
L11L
ssL134L
(dp209
Vobjectkey
p210
L169L
sVnumber
p211
L170L
sVfunction
p212
L172L
sg8
L10L
sg9
L11L
ssL135L
(dp213
Vobjectkey
p214
L173L
sVnumber
p215
L175L
sVfunction
p216
L176L
sg8
L10L
sg9
L11L
ssL136L
(dp217
Vobjectkey
p218
L177L
sg36
L5L
sg8
L10L
sg9
L11L
ssL137L
(dp219
sL138L
(dp220
sL139L
(dp221
sL140L
(dp222
g196
L152L
sg197
L153L
sg198
L154L
sg93
L97L
sg199
L155L
sg94
L98L
sg8
L10L
sg9
L11L
ssL141L
(dp223
sL142L
(dp224
Vlist
p225
L182L
ssL143L
(dp226
sL144L
(dp227
g189
L184L
ssL145L
(dp228
sL146L
(dp229
sL147L
(dp230
g152
L187L
sg153
L188L
sg154
L190L
sg8
L10L
sg9
L11L
ssL148L
(dp231
Vobjectkey
p232
L191L
sVnumber
p233
L192L
sVfunction
p234
L194L
sg8
L10L
sg9
L11L
ssL149L
(dp235
Vobjectkey
p236
L195L
sVnumber
p237
L197L
sVfunction
p238
L198L
sg8
L10L
sg9
L11L
ssL150L
(dp239
Vobjectkey
p240
L199L
sg36
L5L
sg8
L10L
sg9
L11L
ssL151L
(dp241
sL152L
(dp242
sL153L
(dp243
sL154L
(dp244
sL155L
(dp245
sL156L
(dp246
sL157L
(dp247
sL158L
(dp248
sL159L
(dp249
sL160L
(dp250
sL161L
(dp251
sL162L
(dp252
sL163L
(dp253
sL164L
(dp254
g196
L152L
sg197
L153L
sg198
L154L
sg93
L97L
sg199
L155L
sg94
L98L
sg8
L10L
sg9
L11L
ssL165L
(dp255
sL166L
(dp256
sL167L
(dp257
sL168L
(dp258
sL169L
(dp259
sL170L
(dp260
sL171L
(dp261
sL172L
(dp262
sL173L
(dp263
sL174L
(dp264
sL175L
(dp265
sL176L
(dp266
sL177L
(dp267
sL178L
(dp268
sL179L
(dp269
sL180L
(dp270
sL181L
(dp271
sL182L
(dp272
sL183L
(dp273
sL184L
(dp274
sL185L
(dp275
sL186L
(dp276
g225
L182L
ssL187L
(dp277
sL188L
(dp278
sL189L
(dp279
sL190L
(dp280
sL191L
(dp281
sL192L
(dp282
sL193L
(dp283
sL194L
(dp284
sL195L
(dp285
sL196L
(dp286
sL197L
(dp287
sL198L
(dp288
sL199L
(dp289
sL200L
(dp290
sL201L
(dp291
sL202L
(dp292
sL203L
(dp293
sL204L
(dp294
sL205L
(dp295
sL206L
(dp296
sL207L
(dp297
sL208L
(dp298
sL209L
(dp299
sL210L
(dp300
sL211L
(dp301
sL212L
(dp302
sL213L
(dp303
s.(lp0
(VS' -> top
p1
VS'
p2
L1L
NNNtp3
a(Vtop -> objectlist
p4
Vtop
p5
L1L
Vp_top
p6
Vparser.py
p7
L123L
tp8
a(Vobjectlist -> objectitem
p9
Vobjectlist
p10
L1L
Vp_objectlist_0
p11
Vparser.py
p12
L129L
tp13
a(Vobjectlist -> objectlist objectitem
p14
Vobjectlist
p15
L2L
Vp_objectlist_1
p16
Vparser.py
p17
L135L
tp18
a(Vobjectlist -> objectlist COMMA objectitem
p19
Vobjectlist
p20
L3L
Vp_objectlist_2
p21
Vparser.py
p22
L141L
tp23
a(Vobject -> LEFTBRACE objectlist RIGHTBRACE
p24
Vobject
p25
L3L
Vp_object_0
p26
Vparser.py
p27
L147L
tp28
a(Vobject -> LEFTBRACE objectlist COMMA RIGHTBRACE
p29
Vobject
p30
L4L
Vp_object_1
p31
Vparser.py
p32
L153L
tp33
a(Vobject -> LEFTBRACE RIGHTBRACE
p34
Vobject
p35
L2L
Vp_object_2
p36
Vparser.py
p37
L159L
tp38
a(Vobjectkey -> IDENTIFIER
p39
Vobjectkey
p40
L1L
Vp_objectkey_0
p41
Vparser.py
p42
L166L
tp43
a(Vobjectkey -> STRING
p44
g40
L1L
g41
Vparser.py
p45
L167L
tp46
a(Vobjectkey -> IDENTIFIER ADD number
p47
Vobjectkey
p48
L3L
Vp_objectkey_1
p49
Vparser.py
p50
L175L
tp51
a(Vobjectkey -> number ADD IDENTIFIER
p52
g48
L3L
g49
Vparser.py
p53
L176L
tp54
a(Vobjectkey -> IDENTIFIER MINUS number
p55
g48
L3L
g49
Vparser.py
p56
L177L
tp57
a(Vobjectkey -> number MINUS IDENTIFIER
p58
g48
L3L
g49
Vparser.py
p59
L178L
tp60
a(Vobjectkey -> IDENTIFIER MULTIPLY number
p61
g48
L3L
g49
Vparser.py
p62
L179L
tp63
a(Vobjectkey -> number MULTIPLY IDENTIFIER
p64
g48
L3L
g49
Vparser.py
p65
L180L
tp66
a(Vobjectkey -> IDENTIFIER DIVIDE number
p67
g48
L3L
g49
Vparser.py
p68
L181L
tp69
a(Vobjectkey -> number DIVIDE IDENTIFIER
p70
g48
L3L
g49
Vparser.py
p71
L182L
tp72
a(Vobjectbrackets -> IDENTIFIER LEFTBRACKET objectkey RIGHTBRACKET
p73
Vobjectbrackets
p74
L4L
Vp_objectbrackets_0
p75
Vparser.py
p76
L189L
tp77
a(Vobjectbrackets -> IDENTIFIER LEFTBRACKET objectkey RIGHTBRACKET PERIOD IDENTIFIER
p78
Vobjectbrackets
p79
L6L
Vp_objectbrackets_1
p80
Vparser.py
p81
L196L
tp82
a(Vobjectbrackets -> IDENTIFIER LEFTBRACKET NUMBER RIGHTBRACKET PERIOD IDENTIFIER
p83
g79
L6L
g80
Vparser.py
p84
L197L
tp85
a(Vobjectitem -> objectkey EQUAL number
p86
Vobjectitem
p87
L3L
Vp_objectitem_0
p88
Vparser.py
p89
L205L
tp90
a(Vobjectitem -> objectkey EQUAL BOOL
p91
g87
L3L
g88
Vparser.py
p92
L206L
tp93
a(Vobjectitem -> objectkey EQUAL STRING
p94
g87
L3L
g88
Vparser.py
p95
L207L
tp96
a(Vobjectitem -> objectkey EQUAL IDENTIFIER
p97
g87
L3L
g88
Vparser.py
p98
L208L
tp99
a(Vobjectitem -> objectkey EQUAL object
p100
g87
L3L
g88
Vparser.py
p101
L209L
tp102
a(Vobjectitem -> objectkey EQUAL objectkey
p103
g87
L3L
g88
Vparser.py
p104
L210L
tp105
a(Vobjectitem -> objectkey EQUAL list
p106
g87
L3L
g88
Vparser.py
p107
L211L
tp108
a(Vobjectitem -> objectkey EQUAL objectbrackets
p109
g87
L3L
g88
Vparser.py
p110
L212L
tp111
a(Vobjectitem -> objectkey EQUAL function
p112
g87
L3L
g88
Vparser.py
p113
L213L
tp114
a(Vobjectitem -> objectkey EQUAL booleanexp
p115
g87
L3L
g88
Vparser.py
p116
L214L
tp117
a(Vobjectitem -> objectkey COLON number
p118
g87
L3L
g88
Vparser.py
p119
L215L
tp120
a(Vobjectitem -> objectkey COLON BOOL
p121
g87
L3L
g88
Vparser.py
p122
L216L
tp123
a(Vobjectitem -> objectkey COLON STRING
p124
g87
L3L
g88
Vparser.py
p125
L217L
tp126
a(Vobjectitem -> objectkey COLON IDENTIFIER
p127
g87
L3L
g88
Vparser.py
p128
L218L
tp129
a(Vobjectitem -> objectkey COLON object
p130
g87
L3L
g88
Vparser.py
p131
L219L
tp132
a(Vobjectitem -> objectkey COLON objectkey
p133
g87
L3L
g88
Vparser.py
p134
L220L
tp135
a(Vobjectitem -> objectkey COLON list
p136
g87
L3L
g88
Vparser.py
p137
L221L
tp138
a(Vobjectitem -> objectkey COLON objectbrackets
p139
g87
L3L
g88
Vparser.py
p140
L222L
tp141
a(Vobjectitem -> objectkey COLON booleanexp
p142
g87
L3L
g88
Vparser.py
p143
L223L
tp144
a(Vobjectitem -> block
p145
Vobjectitem
p146
L1L
Vp_objectitem_1
p147
Vparser.py
p148
L230L
tp149
a(Vobjectitem -> objectkey EQUAL objectkey QMARK objectkey COLON objectkey
p150
Vobjectitem
p151
L7L
Vp_objectitem_2
p152
Vparser.py
p153
L237L
tp154
a(Vobjectitem -> objectkey EQUAL objectkey QMARK objectkey COLON number
p155
g151
L7L
g152
Vparser.py
p156
L238L
tp157
a(Vobjectitem -> objectkey EQUAL objectkey QMARK objectkey COLON BOOL
p158
g151
L7L
g152
Vparser.py
p159
L239L
tp160
a(Vobjectitem -> objectkey EQUAL objectkey QMARK objectkey COLON function
p161
g151
L7L
g152
Vparser.py
p162
L240L
tp163
a(Vobjectitem -> objectkey EQUAL objectkey QMARK number COLON objectkey
p164
g151
L7L
g152
Vparser.py
p165
L241L
tp166
a(Vobjectitem -> objectkey EQUAL objectkey QMARK BOOL COLON objectkey
p167
g151
L7L
g152
Vparser.py
p168
L242L
tp169
a(Vobjectitem -> objectkey EQUAL objectkey QMARK function COLON objectkey
p170
g151
L7L
g152
Vparser.py
p171
L243L
tp172
a(Vobjectitem -> objectkey EQUAL objectkey QMARK number COLON number
p173
g151
L7L
g152
Vparser.py
p174
L244L
tp175
a(Vobjectitem -> objectkey EQUAL objectkey QMARK number COLON BOOL
p176
g151
L7L
g152
Vparser.py
p177
L245L
tp178
a(Vobjectitem -> objectkey EQUAL objectkey QMARK number COLON function
p179
g151
L7L
g152
Vparser.py
p180
L246L
tp181
a(Vobjectitem -> objectkey EQUAL objectkey QMARK BOOL COLON number
p182
g151
L7L
g152
Vparser.py
p183
L247L
tp184
a(Vobjectitem -> objectkey EQUAL objectkey QMARK BOOL COLON function
p185
g151
L7L
g152
Vparser.py
p186
L248L
tp187
a(Vobjectitem -> objectkey EQUAL objectkey QMARK BOOL COLON BOOL
p188
g151
L7L
g152
Vparser.py
p189
L249L
tp190
a(Vobjectitem -> objectkey EQUAL booleanexp QMARK objectkey COLON objectkey
p191
g151
L7L
g152
Vparser.py
p192
L250L
tp193
a(Vobjectitem -> objectkey EQUAL booleanexp QMARK objectkey COLON number
p194
g151
L7L
g152
Vparser.py
p195
L251L
tp196
a(Vobjectitem -> objectkey EQUAL booleanexp QMARK objectkey COLON BOOL
p197
g151
L7L
g152
Vparser.py
p198
L252L
tp199
a(Vobjectitem -> objectkey EQUAL booleanexp QMARK objectkey COLON function
p200
g151
L7L
g152
Vparser.py
p201
L253L
tp202
a(Vobjectitem -> objectkey EQUAL booleanexp QMARK number COLON objectkey
p203
g151
L7L
g152
Vparser.py
p204
L254L
tp205
a(Vobjectitem -> objectkey EQUAL booleanexp QMARK BOOL COLON objectkey
p206
g151
L7L
g152
Vparser.py
p207
L255L
tp208
a(Vobjectitem -> objectkey EQUAL booleanexp QMARK function COLON objectkey
p209
g151
L7L
g152
Vparser.py
p210
L256L
tp211
a(Vobjectitem -> objectkey EQUAL booleanexp QMARK number COLON number
p212
g151
L7L
g152
Vparser.py
p213
L257L
tp214
a(Vobjectitem -> objectkey EQUAL booleanexp QMARK number COLON BOOL
p215
g151
L7L
g152
Vparser.py
p216
L258L
tp217
a(Vobjectitem -> objectkey EQUAL booleanexp QMARK number COLON function
p218
g151
L7L
g152
Vparser.py
p219
L259L
tp220
a(Vobjectitem -> objectkey EQUAL booleanexp QMARK BOOL COLON number
p221
g151
L7L
g152
Vparser.py
p222
L260L
tp223
a(Vobjectitem -> objectkey EQUAL booleanexp QMARK BOOL COLON function
p224
g151
L7L
g152
Vparser.py
p225
L261L
tp226
a(Vobjectitem -> objectkey EQUAL booleanexp QMARK BOOL COLON BOOL
p227
g151
L7L
g152
Vparser.py
p228
L262L
tp229
a(Voperator -> EQ
p230
Voperator
p231
L1L
Vp_operator_0
p232
Vparser.py
p233
L270L
tp234
a(Voperator -> NE
p235
g231
L1L
g232
Vparser.py
p236
L271L
tp237
a(Voperator -> LT
p238
g231
L1L
g232
Vparser.py
p239
L272L
tp240
a(Voperator -> GT
p241
g231
L1L
g232
Vparser.py
p242
L273L
tp243
a(Voperator -> LE
p244
g231
L1L
g232
Vparser.py
p245
L274L
tp246
a(Voperator -> GE
p247
g231
L1L
g232
Vparser.py
p248
L275L
tp249
a(Vbooleanexp -> objectkey operator objectkey
p250
Vbooleanexp
p251
L3L
Vp_booleanexp_0
p252
Vparser.py
p253
L283L
tp254
a(Vbooleanexp -> objectkey operator number
p255
g251
L3L
g252
Vparser.py
p256
L284L
tp257
a(Vbooleanexp -> number operator objectkey
p258
g251
L3L
g252
Vparser.py
p259
L285L
tp260
a(Vblock -> objectkey object
p261
Vblock
p262
L2L
Vp_block_0
p263
Vparser.py
p264
L292L
tp265
a(Vblock -> objectkey block
p266
Vblock
p267
L2L
Vp_block_1
p268
Vparser.py
p269
L298L
tp270
a(Vlist -> LEFTBRACKET listitems RIGHTBRACKET
p271
Vlist
p272
L3L
Vp_list_0
p273
Vparser.py
p274
L305L
tp275
a(Vlist -> LEFTBRACKET listitems COMMA RIGHTBRACKET
p276
g272
L4L
g273
Vparser.py
p277
L306L
tp278
a(Vlist -> LEFTBRACKET RIGHTBRACKET
p279
Vlist
p280
L2L
Vp_list_1
p281
Vparser.py
p282
L314L
tp283
a(Vlist -> LEFTPAREN RIGHTPAREN
p284
g280
L2L
g281
Vparser.py
p285
L315L
tp286
a(Vlist -> LEFTPAREN LEFTBRACKET listitems RIGHTBRACKET PERIOD PERIOD PERIOD RIGHTPAREN
p287
Vlist
p288
L8L
Vp_list_2
p289
Vparser.py
p290
L323L
tp291
a(Vlist_of_lists -> list COMMA list
p292
Vlist_of_lists
p293
L3L
Vp_list_of_lists_0
p294
Vparser.py
p295
L331L
tp296
a(Vlist_of_lists -> list_of_lists COMMA list
p297
Vlist_of_lists
p298
L3L
Vp_list_of_lists_1
p299
Vparser.py
p300
L339L
tp301
a(Vfunction -> IDENTIFIER LEFTPAREN listitems RIGHTPAREN
p302
Vfunction
p303
L4L
Vp_function_0
p304
Vparser.py
p305
L347L
tp306
a(Vfunction -> IDENTIFIER LEFTPAREN list_of_lists RIGHTPAREN
p307
g303
L4L
g304
Vparser.py
p308
L348L
tp309
a(Vfunction -> IDENTIFIER LEFTPAREN listitems COMMA RIGHTPAREN
p310
Vfunction
p311
L5L
Vp_function_1
p312
Vparser.py
p313
L357L
tp314
a(Vfunction -> IDENTIFIER LEFTPAREN list_of_lists COMMA RIGHTPAREN
p315
g311
L5L
g312
Vparser.py
p316
L358L
tp317
a(Vfunction -> IDENTIFIER LEFTPAREN list PERIOD PERIOD PERIOD RIGHTPAREN
p318
Vfunction
p319
L7L
Vp_function_2
p320
Vparser.py
p321
L367L
tp322
a(Vfunction -> IDENTIFIER LEFTPAREN LEFTBRACKET list_of_lists RIGHTBRACKET PERIOD PERIOD PERIOD RIGHTPAREN
p323
Vfunction
p324
L9L
Vp_function_3
p325
Vparser.py
p326
L376L
tp327
a(Vlistitems -> listitem
p328
Vlistitems
p329
L1L
Vp_listitems_0
p330
Vparser.py
p331
L416L
tp332
a(Vlistitems -> function
p333
g329
L1L
g330
Vparser.py
p334
L417L
tp335
a(Vlistitems -> object COMMA
p336
g329
L2L
g330
Vparser.py
p337
L418L
tp338
a(Vlistitems -> objectkey COMMA
p339
g329
L2L
g330
Vparser.py
p340
L419L
tp341
a(Vlistitems -> listitems COMMA listitem
p342
Vlistitems
p343
L3L
Vp_listitems_1
p344
Vparser.py
p345
L427L
tp346
a(Vlistitems -> listitems COMMA function
p347
g343
L3L
g344
Vparser.py
p348
L428L
tp349
a(Vlistitems -> listitems COMMA objectkey
p350
g343
L3L
g344
Vparser.py
p351
L429L
tp352
a(Vlistitems -> object COMMA object
p353
Vlistitems
p354
L3L
Vp_listitems_2
p355
Vparser.py
p356
L437L
tp357
a(Vlistitems -> object COMMA objectkey
p358
g354
L3L
g355
Vparser.py
p359
L438L
tp360
a(Vlistitems -> objectkey COMMA objectkey
p361
g354
L3L
g355
Vparser.py
p362
L439L
tp363
a(Vlistitems -> objectkey COMMA object
p364
g354
L3L
g355
Vparser.py
p365
L440L
tp366
a(Vlistitems -> objectkey COMMA list
p367
g354
L3L
g355
Vparser.py
p368
L441L
tp369
a(Vlistitems -> objectkey COMMA IDENTIFIER ASTERISK_PERIOD IDENTIFIER
p370
Vlistitems
p371
L5L
Vp_listitems_3
p372
Vparser.py
p373
L449L
tp374
a(Vlistitems -> objectkey list
p375
Vlistitems
p376
L2L
Vp_listitems_4
p377
Vparser.py
p378
L457L
tp379
a(Vlistitem -> number
p380
Vlistitem
p381
L1L
Vp_listitem_0
p382
Vparser.py
p383
L466L
tp384
a(Vlistitem -> object
p385
g381
L1L
g382
Vparser.py
p386
L467L
tp387
a(Vlistitem -> objectkey
p388
g381
L1L
g382
Vparser.py
p389
L468L
tp390
a(Vlistitem -> objectbrackets
p391
g381
L1L
g382
Vparser.py
p392
L469L
tp393
a(Vlistitem -> IDENTIFIER ASTERISK_PERIOD IDENTIFIER
p394
Vlistitem
p395
L3L
Vp_listitem_1
p396
Vparser.py
p397
L477L
tp398
a(Vnumber -> int
p399
Vnumber
p400
L1L
Vp_number_0
p401
Vparser.py
p402
L484L
tp403
a(Vnumber -> float
p404
Vnumber
p405
L1L
Vp_number_1
p406
Vparser.py
p407
L490L
tp408
a(Vnumber -> int exp
p409
Vnumber
p410
L2L
Vp_number_2
p411
Vparser.py
p412
L496L
tp413
a(Vnumber -> float exp
p414
Vnumber
p415
L2L
Vp_number_3
p416
Vparser.py
p417
L502L
tp418
a(Vnumber -> number ADD number
p419
Vnumber
p420
L3L
Vp_number_4
p421
Vparser.py
p422
L509L
tp423
a(Vnumber -> number MINUS number
p424
Vnumber
p425
L3L
Vp_number_5
p426
Vparser.py
p427
L517L
tp428
a(Vnumber -> number MULTIPLY number
p429
Vnumber
p430
L3L
Vp_number_6
p431
Vparser.py
p432
L525L
tp433
a(Vnumber -> number DIVIDE number
p434
Vnumber
p435
L3L
Vp_number_7
p436
Vparser.py
p437
L533L
tp438
a(Vint -> MINUS int
p439
Vint
p440
L2L
Vp_int_0
p441
Vparser.py
p442
L540L
tp443
a(Vint -> NUMBER
p444
Vint
p445
L1L
Vp_int_1
p446
Vparser.py
p447
L546L
tp448
a(Vfloat -> MINUS float
p449
Vfloat
p450
L2L
Vp_float_0
p451
Vparser.py
p452
L552L
tp453
a(Vfloat -> FLOAT
p454
Vfloat
p455
L1L
Vp_float_1
p456
Vparser.py
p457
L556L
tp458
a(Vexp -> EPLUS NUMBER
p459
Vexp
p460
L2L
Vp_exp_0
p461
Vparser.py
p462
L560L
tp463
a(Vexp -> EMINUS NUMBER
p464
Vexp
p465
L2L
Vp_exp_1
p466
Vparser.py
p467
L566L
tp468
a.